; Function Attrs: nounwind uwtable
define dso_local { i64, ptr } @jv_string_fmt(ptr noundef readonly captures(none) %0, ...) local_unnamed_addr #2 {
  %2 = alloca [1 x %struct.__va_list_tag], align 16
  call void @llvm.lifetime.start.p0(i64 24, ptr nonnull %2) #25
  call void @llvm.va_start.p0(ptr nonnull %2)
  %3 = call { i64, ptr } @jv_string_vfmt(ptr noundef %0, ptr noundef nonnull %2)
  call void @llvm.va_end.p0(ptr nonnull %2)
  call void @llvm.lifetime.end.p0(i64 24, ptr nonnull %2) #25
  ret { i64, ptr } %3
}